target datalayout = "e-m:e-p270:32:32-p271:32:32-p272:64:64-i64:64-i128:128-f80:128-n8:16:32:64-S128"
target triple = "x86_64-pc-linux-gnu"

%struct.Vec_Int_t_ = type { i32, i32, ptr }
%struct.Hsh_IntMan_t_ = type { i32, ptr, ptr, ptr }
%struct.Vec_Wrd_t_ = type { i32, i32, ptr }
%struct.timespec = type { i64, i64 }

@.str.23 = private unnamed_addr constant [14 x i8] c"dsdfuncs6.dat\00", align 1
@.str.24 = private unnamed_addr constant [3 x i8] c"rb\00", align 1
@.str.25 = private unnamed_addr constant [13 x i8] c"Reading file\00", align 1
@.str.26 = private unnamed_addr constant [5 x i8] c"%s =\00", align 1
@.str.27 = private unnamed_addr constant [11 x i8] c"%9.2f sec\0A\00", align 1

; Function Attrs: inlinehint nounwind uwtable
define internal i32 @Vec_WrdSize(ptr noundef %0) #3 {
  %2 = alloca ptr, align 8
  store ptr %0, ptr %2, align 8, !tbaa !40
  %3 = load ptr, ptr %2, align 8, !tbaa !40
  %4 = getelementptr inbounds nuw %struct.Vec_Wrd_t_, ptr %3, i32 0, i32 1
  %5 = load i32, ptr %4, align 4, !tbaa !41
  ret i32 %5
}

; Function Attrs: inlinehint nounwind uwtable
define internal void @Abc_PrintTime(i32 noundef %0, ptr noundef %1, i64 noundef %2) #3 {
  %4 = alloca i32, align 4
  %5 = alloca ptr, align 8
  %6 = alloca i64, align 8
  store i32 %0, ptr %4, align 4, !tbaa !24
  store ptr %1, ptr %5, align 8, !tbaa !80
  store i64 %2, ptr %6, align 8, !tbaa !55
  %7 = load ptr, ptr %5, align 8, !tbaa !80
  call void (i32, ptr, ...) @Abc_Print(i32 noundef 1, ptr noundef @.str.26, ptr noundef %7)
  %8 = load i64, ptr %6, align 8, !tbaa !55
  %9 = sitofp i64 %8 to double
  %10 = fmul double 1.000000e+00, %9
  %11 = fdiv double %10, 1.000000e+06
  call void (i32, ptr, ...) @Abc_Print(i32 noundef 1, ptr noundef @.str.27, double noundef %11)
  ret void
}

; Function Attrs: inlinehint nounwind uwtable
define internal void @Vec_IntFree(ptr noundef %0) #3 {
  %2 = alloca ptr, align 8
  store ptr %0, ptr %2, align 8, !tbaa !28
  %3 = load ptr, ptr %2, align 8, !tbaa !28
  %4 = getelementptr inbounds nuw %struct.Vec_Int_t_, ptr %3, i32 0, i32 2
  %5 = load ptr, ptr %4, align 8, !tbaa !33
  %6 = icmp ne ptr %5, null
  br i1 %6, label %7, label %13

7:                                                ; preds = %1
  %8 = load ptr, ptr %2, align 8, !tbaa !28
  %9 = getelementptr inbounds nuw %struct.Vec_Int_t_, ptr %8, i32 0, i32 2
  %10 = load ptr, ptr %9, align 8, !tbaa !33
  call void @free(ptr noundef %10) #12
  %11 = load ptr, ptr %2, align 8, !tbaa !28
  %12 = getelementptr inbounds nuw %struct.Vec_Int_t_, ptr %11, i32 0, i32 2
  store ptr null, ptr %12, align 8, !tbaa !33
  br label %14

13:                                               ; preds = %1
  br label %14

14:                                               ; preds = %13, %7
  %15 = load ptr, ptr %2, align 8, !tbaa !28
  %16 = icmp ne ptr %15, null
  br i1 %16, label %17, label %19

17:                                               ; preds = %14
  %18 = load ptr, ptr %2, align 8, !tbaa !28
  call void @free(ptr noundef %18) #12
  store ptr null, ptr %2, align 8, !tbaa !28
  br label %20

19:                                               ; preds = %14
  br label %20

20:                                               ; preds = %19, %17
  ret void
}

; Function Attrs: inlinehint nounwind uwtable
define internal void @Vec_WrdFree(ptr noundef %0) #3 {
  %2 = alloca ptr, align 8
  store ptr %0, ptr %2, align 8, !tbaa !40
  %3 = load ptr, ptr %2, align 8, !tbaa !40
  %4 = getelementptr inbounds nuw %struct.Vec_Wrd_t_, ptr %3, i32 0, i32 2
  %5 = load ptr, ptr %4, align 8, !tbaa !45
  %6 = icmp ne ptr %5, null
  br i1 %6, label %7, label %13

7:                                                ; preds = %1
  %8 = load ptr, ptr %2, align 8, !tbaa !40
  %9 = getelementptr inbounds nuw %struct.Vec_Wrd_t_, ptr %8, i32 0, i32 2
  %10 = load ptr, ptr %9, align 8, !tbaa !45
  call void @free(ptr noundef %10) #12
  %11 = load ptr, ptr %2, align 8, !tbaa !40
  %12 = getelementptr inbounds nuw %struct.Vec_Wrd_t_, ptr %11, i32 0, i32 2
  store ptr null, ptr %12, align 8, !tbaa !45
  br label %14

13:                                               ; preds = %1
  br label %14

14:                                               ; preds = %13, %7
  %15 = load ptr, ptr %2, align 8, !tbaa !40
  %16 = icmp ne ptr %15, null
  br i1 %16, label %17, label %19

17:                                               ; preds = %14
  %18 = load ptr, ptr %2, align 8, !tbaa !40
  call void @free(ptr noundef %18) #12
  store ptr null, ptr %2, align 8, !tbaa !40
  br label %20

19:                                               ; preds = %14
  br label %20

20:                                               ; preds = %19, %17
  ret void
}

; Function Attrs: inlinehint nounwind uwtable
define internal void @Hsh_IntManStop(ptr noundef %0) #3 {
  %2 = alloca ptr, align 8
  store ptr %0, ptr %2, align 8, !tbaa !34
  %3 = load ptr, ptr %2, align 8, !tbaa !34
  %4 = getelementptr inbounds nuw %struct.Hsh_IntMan_t_, ptr %3, i32 0, i32 2
  %5 = load ptr, ptr %4, align 8, !tbaa !38
  call void @Vec_IntFree(ptr noundef %5)
  %6 = load ptr, ptr %2, align 8, !tbaa !34
  %7 = getelementptr inbounds nuw %struct.Hsh_IntMan_t_, ptr %6, i32 0, i32 3
  %8 = load ptr, ptr %7, align 8, !tbaa !39
  call void @Vec_WrdFree(ptr noundef %8)
  %9 = load ptr, ptr %2, align 8, !tbaa !34
  %10 = icmp ne ptr %9, null
  br i1 %10, label %11, label %13

11:                                               ; preds = %1
  %12 = load ptr, ptr %2, align 8, !tbaa !34
  call void @free(ptr noundef %12) #12
  store ptr null, ptr %2, align 8, !tbaa !34
  br label %14

13:                                               ; preds = %1
  br label %14

14:                                               ; preds = %13, %11
  ret void
}

; Function Attrs: inlinehint nounwind uwtable
define internal ptr @Hsh_WrdManHashArrayStart(ptr noundef %0, i32 noundef %1) #3 {
  %3 = alloca ptr, align 8
  %4 = alloca i32, align 4
  %5 = alloca ptr, align 8
  %6 = alloca i32, align 4
  %7 = alloca i32, align 4
  %8 = alloca ptr, align 8
  store ptr %0, ptr %3, align 8, !tbaa !40
  store i32 %1, ptr %4, align 4, !tbaa !24
  call void @llvm.lifetime.start.p0(i64 8, ptr %5) #12
  call void @llvm.lifetime.start.p0(i64 4, ptr %6) #12
  call void @llvm.lifetime.start.p0(i64 4, ptr %7) #12
  %9 = load ptr, ptr %3, align 8, !tbaa !40
  %10 = call i32 @Vec_WrdSize(ptr noundef %9)
  %11 = load i32, ptr %4, align 4, !tbaa !24
  %12 = sdiv i32 %10, %11
  store i32 %12, ptr %7, align 4, !tbaa !24
  call void @llvm.lifetime.start.p0(i64 8, ptr %8) #12
  %13 = load ptr, ptr %3, align 8, !tbaa !40
  %14 = call i32 @Vec_WrdSize(ptr noundef %13)
  %15 = mul nsw i32 2, %14
  %16 = call ptr @Vec_IntAlloc(i32 noundef %15)
  store ptr %16, ptr %8, align 8, !tbaa !28
  %17 = load ptr, ptr %8, align 8, !tbaa !28
  %18 = call ptr @Vec_IntArray(ptr noundef %17)
  %19 = load ptr, ptr %3, align 8, !tbaa !40
  %20 = call ptr @Vec_WrdArray(ptr noundef %19)
  %21 = load ptr, ptr %3, align 8, !tbaa !40
  %22 = call i32 @Vec_WrdSize(ptr noundef %21)
  %23 = sext i32 %22 to i64
  %24 = mul i64 8, %23
  call void @llvm.memcpy.p0.p0.i64(ptr align 4 %18, ptr align 8 %20, i64 %24, i1 false)
  %25 = load ptr, ptr %3, align 8, !tbaa !40
  %26 = call i32 @Vec_WrdSize(ptr noundef %25)
  %27 = mul nsw i32 2, %26
  %28 = load ptr, ptr %8, align 8, !tbaa !28
  %29 = getelementptr inbounds nuw %struct.Vec_Int_t_, ptr %28, i32 0, i32 1
  store i32 %27, ptr %29, align 4, !tbaa !29
  %30 = load ptr, ptr %8, align 8, !tbaa !28
  %31 = load i32, ptr %4, align 4, !tbaa !24
  %32 = mul nsw i32 2, %31
  %33 = load i32, ptr %7, align 4, !tbaa !24
  %34 = call ptr @Hsh_IntManStart(ptr noundef %30, i32 noundef %32, i32 noundef %33)
  store ptr %34, ptr %5, align 8, !tbaa !34
  store i32 0, ptr %6, align 4, !tbaa !24
  br label %35

35:                                               ; preds = %43, %2
  %36 = load i32, ptr %6, align 4, !tbaa !24
  %37 = load i32, ptr %7, align 4, !tbaa !24
  %38 = icmp slt i32 %36, %37
  br i1 %38, label %39, label %46

39:                                               ; preds = %35
  %40 = load ptr, ptr %5, align 8, !tbaa !34
  %41 = load i32, ptr %6, align 4, !tbaa !24
  %42 = call i32 @Hsh_IntManAdd(ptr noundef %40, i32 noundef %41)
  br label %43

43:                                               ; preds = %39
  %44 = load i32, ptr %6, align 4, !tbaa !24
  %45 = add nsw i32 %44, 1
  store i32 %45, ptr %6, align 4, !tbaa !24
  br label %35, !llvm.loop !121

46:                                               ; preds = %35
  %47 = load ptr, ptr %5, align 8, !tbaa !34
  call void @llvm.lifetime.end.p0(i64 8, ptr %8) #12
  call void @llvm.lifetime.end.p0(i64 4, ptr %7) #12
  call void @llvm.lifetime.end.p0(i64 4, ptr %6) #12
  call void @llvm.lifetime.end.p0(i64 8, ptr %5) #12
  ret ptr %47
}

; Function Attrs: inlinehint nounwind uwtable
define internal ptr @Vec_IntArray(ptr noundef %0) #3 {
  %2 = alloca ptr, align 8
  store ptr %0, ptr %2, align 8, !tbaa !28
  %3 = load ptr, ptr %2, align 8, !tbaa !28
  %4 = getelementptr inbounds nuw %struct.Vec_Int_t_, ptr %3, i32 0, i32 2
  %5 = load ptr, ptr %4, align 8, !tbaa !33
  ret ptr %5
}

; Function Attrs: inlinehint nounwind uwtable
define internal ptr @Vec_WrdArray(ptr noundef %0) #3 {
  %2 = alloca ptr, align 8
  store ptr %0, ptr %2, align 8, !tbaa !40
  %3 = load ptr, ptr %2, align 8, !tbaa !40
  %4 = getelementptr inbounds nuw %struct.Vec_Wrd_t_, ptr %3, i32 0, i32 2
  %5 = load ptr, ptr %4, align 8, !tbaa !45
  ret ptr %5
}

; Function Attrs: inlinehint nounwind uwtable
define internal ptr @Vec_IntAlloc(i32 noundef %0) #3 {
  %2 = alloca i32, align 4
  %3 = alloca ptr, align 8
  store i32 %0, ptr %2, align 4, !tbaa !24
  call void @llvm.lifetime.start.p0(i64 8, ptr %3) #12
  %4 = call noalias ptr @malloc(i64 noundef 16) #14
  store ptr %4, ptr %3, align 8, !tbaa !28
  %5 = load i32, ptr %2, align 4, !tbaa !24
  %6 = icmp sgt i32 %5, 0
  br i1 %6, label %7, label %11

7:                                                ; preds = %1
  %8 = load i32, ptr %2, align 4, !tbaa !24
  %9 = icmp slt i32 %8, 16
  br i1 %9, label %10, label %11

10:                                               ; preds = %7
  store i32 16, ptr %2, align 4, !tbaa !24
  br label %11

11:                                               ; preds = %10, %7, %1
  %12 = load ptr, ptr %3, align 8, !tbaa !28
  %13 = getelementptr inbounds nuw %struct.Vec_Int_t_, ptr %12, i32 0, i32 1
  store i32 0, ptr %13, align 4, !tbaa !29
  %14 = load i32, ptr %2, align 4, !tbaa !24
  %15 = load ptr, ptr %3, align 8, !tbaa !28
  %16 = getelementptr inbounds nuw %struct.Vec_Int_t_, ptr %15, i32 0, i32 0
  store i32 %14, ptr %16, align 8, !tbaa !32
  %17 = load ptr, ptr %3, align 8, !tbaa !28
  %18 = getelementptr inbounds nuw %struct.Vec_Int_t_, ptr %17, i32 0, i32 0
  %19 = load i32, ptr %18, align 8, !tbaa !32
  %20 = icmp ne i32 %19, 0
  br i1 %20, label %21, label %28

21:                                               ; preds = %11
  %22 = load ptr, ptr %3, align 8, !tbaa !28
  %23 = getelementptr inbounds nuw %struct.Vec_Int_t_, ptr %22, i32 0, i32 0
  %24 = load i32, ptr %23, align 8, !tbaa !32
  %25 = sext i32 %24 to i64
  %26 = mul i64 4, %25
  %27 = call noalias ptr @malloc(i64 noundef %26) #14
  br label %29

28:                                               ; preds = %11
  br label %29

29:                                               ; preds = %28, %21
  %30 = phi ptr [ %27, %21 ], [ null, %28 ]
  %31 = load ptr, ptr %3, align 8, !tbaa !28
  %32 = getelementptr inbounds nuw %struct.Vec_Int_t_, ptr %31, i32 0, i32 2
  store ptr %30, ptr %32, align 8, !tbaa !33
  %33 = load ptr, ptr %3, align 8, !tbaa !28
  call void @llvm.lifetime.end.p0(i64 8, ptr %3) #12
  ret ptr %33
}

; Function Attrs: inlinehint nounwind uwtable
define internal ptr @Vec_WrdAlloc(i32 noundef %0) #3 {
  %2 = alloca i32, align 4
  %3 = alloca ptr, align 8
  store i32 %0, ptr %2, align 4, !tbaa !24
  call void @llvm.lifetime.start.p0(i64 8, ptr %3) #12
  %4 = call noalias ptr @malloc(i64 noundef 16) #14
  store ptr %4, ptr %3, align 8, !tbaa !40
  %5 = load i32, ptr %2, align 4, !tbaa !24
  %6 = icmp sgt i32 %5, 0
  br i1 %6, label %7, label %11

7:                                                ; preds = %1
  %8 = load i32, ptr %2, align 4, !tbaa !24
  %9 = icmp slt i32 %8, 16
  br i1 %9, label %10, label %11

10:                                               ; preds = %7
  store i32 16, ptr %2, align 4, !tbaa !24
  br label %11

11:                                               ; preds = %10, %7, %1
  %12 = load ptr, ptr %3, align 8, !tbaa !40
  %13 = getelementptr inbounds nuw %struct.Vec_Wrd_t_, ptr %12, i32 0, i32 1
  store i32 0, ptr %13, align 4, !tbaa !41
  %14 = load i32, ptr %2, align 4, !tbaa !24
  %15 = load ptr, ptr %3, align 8, !tbaa !40
  %16 = getelementptr inbounds nuw %struct.Vec_Wrd_t_, ptr %15, i32 0, i32 0
  store i32 %14, ptr %16, align 8, !tbaa !44
  %17 = load ptr, ptr %3, align 8, !tbaa !40
  %18 = getelementptr inbounds nuw %struct.Vec_Wrd_t_, ptr %17, i32 0, i32 0
  %19 = load i32, ptr %18, align 8, !tbaa !44
  %20 = icmp ne i32 %19, 0
  br i1 %20, label %21, label %28

21:                                               ; preds = %11
  %22 = load ptr, ptr %3, align 8, !tbaa !40
  %23 = getelementptr inbounds nuw %struct.Vec_Wrd_t_, ptr %22, i32 0, i32 0
  %24 = load i32, ptr %23, align 8, !tbaa !44
  %25 = sext i32 %24 to i64
  %26 = mul i64 8, %25
  %27 = call noalias ptr @malloc(i64 noundef %26) #14
  br label %29

28:                                               ; preds = %11
  br label %29

29:                                               ; preds = %28, %21
  %30 = phi ptr [ %27, %21 ], [ null, %28 ]
  %31 = load ptr, ptr %3, align 8, !tbaa !40
  %32 = getelementptr inbounds nuw %struct.Vec_Wrd_t_, ptr %31, i32 0, i32 2
  store ptr %30, ptr %32, align 8, !tbaa !45
  %33 = load ptr, ptr %3, align 8, !tbaa !40
  call void @llvm.lifetime.end.p0(i64 8, ptr %3) #12
  ret ptr %33
}

; Function Attrs: inlinehint nounwind uwtable
define internal i64 @Abc_Clock() #3 {
  %1 = alloca i64, align 8
  %2 = alloca %struct.timespec, align 8
  %3 = alloca i32, align 4
  %4 = alloca i64, align 8
  call void @llvm.lifetime.start.p0(i64 16, ptr %2) #12
  %5 = call i32 @clock_gettime(i32 noundef 1, ptr noundef %2) #12
  %6 = icmp slt i32 %5, 0
  br i1 %6, label %7, label %8

7:                                                ; preds = %0
  store i64 -1, ptr %1, align 8
  store i32 1, ptr %3, align 4
  br label %19

8:                                                ; preds = %0
  call void @llvm.lifetime.start.p0(i64 8, ptr %4) #12
  %9 = getelementptr inbounds nuw %struct.timespec, ptr %2, i32 0, i32 0
  %10 = load i64, ptr %9, align 8, !tbaa !124
  %11 = mul nsw i64 %10, 1000000
  store i64 %11, ptr %4, align 8, !tbaa !55
  %12 = getelementptr inbounds nuw %struct.timespec, ptr %2, i32 0, i32 1
  %13 = load i64, ptr %12, align 8, !tbaa !126
  %14 = mul nsw i64 %13, 1000000
  %15 = sdiv i64 %14, 1000000000
  %16 = load i64, ptr %4, align 8, !tbaa !55
  %17 = add nsw i64 %16, %15
  store i64 %17, ptr %4, align 8, !tbaa !55
  %18 = load i64, ptr %4, align 8, !tbaa !55
  store i64 %18, ptr %1, align 8
  store i32 1, ptr %3, align 4
  call void @llvm.lifetime.end.p0(i64 8, ptr %4) #12
  br label %19

19:                                               ; preds = %8, %7
  call void @llvm.lifetime.end.p0(i64 16, ptr %2) #12
  %20 = load i64, ptr %1, align 8
  ret i64 %20
}

; Function Attrs: nounwind uwtable
define i32 @Ifd_ManDsdTest55() #0 {
  %1 = alloca i64, align 8
  %2 = alloca ptr, align 8
  %3 = alloca ptr, align 8
  %4 = alloca i32, align 4
  %5 = alloca i32, align 4
  %6 = alloca ptr, align 8
  %7 = alloca ptr, align 8
  %8 = alloca ptr, align 8
  call void @llvm.lifetime.start.p0(i64 8, ptr %1) #12
  %9 = call i64 @Abc_Clock()
  store i64 %9, ptr %1, align 8, !tbaa !55
  call void @llvm.lifetime.start.p0(i64 8, ptr %2) #12
  call void @llvm.lifetime.start.p0(i64 8, ptr %3) #12
  store ptr @.str.23, ptr %3, align 8, !tbaa !80
  call void @llvm.lifetime.start.p0(i64 4, ptr %4) #12
  call void @llvm.lifetime.start.p0(i64 4, ptr %5) #12
  %10 = load ptr, ptr %3, align 8, !tbaa !80
  %11 = call i32 @Extra_FileSize(ptr noundef %10)
  %12 = sdiv i32 %11, 12
  store i32 %12, ptr %5, align 4, !tbaa !24
  call void @llvm.lifetime.start.p0(i64 8, ptr %6) #12
  %13 = load i32, ptr %5, align 4, !tbaa !24
  %14 = add nsw i32 %13, 1
  %15 = call ptr @Vec_WrdAlloc(i32 noundef %14)
  store ptr %15, ptr %6, align 8, !tbaa !40
  call void @llvm.lifetime.start.p0(i64 8, ptr %7) #12
  %16 = load i32, ptr %5, align 4, !tbaa !24
  %17 = call ptr @Vec_IntAlloc(i32 noundef %16)
  store ptr %17, ptr %7, align 8, !tbaa !28
  call void @llvm.lifetime.start.p0(i64 8, ptr %8) #12
  %18 = load ptr, ptr %3, align 8, !tbaa !80
  %19 = call noalias ptr @fopen(ptr noundef %18, ptr noundef @.str.24)
  store ptr %19, ptr %2, align 8, !tbaa !57
  %20 = load ptr, ptr %6, align 8, !tbaa !40
  %21 = call ptr @Vec_WrdArray(ptr noundef %20)
  %22 = load i32, ptr %5, align 4, !tbaa !24
  %23 = sext i32 %22 to i64
  %24 = load ptr, ptr %2, align 8, !tbaa !57
  %25 = call i64 @fread(ptr noundef %21, i64 noundef 8, i64 noundef %23, ptr noundef %24)
  %26 = trunc i64 %25 to i32
  store i32 %26, ptr %4, align 4, !tbaa !24
  %27 = load ptr, ptr %7, align 8, !tbaa !28
  %28 = call ptr @Vec_IntArray(ptr noundef %27)
  %29 = load i32, ptr %5, align 4, !tbaa !24
  %30 = sext i32 %29 to i64
  %31 = load ptr, ptr %2, align 8, !tbaa !57
  %32 = call i64 @fread(ptr noundef %28, i64 noundef 4, i64 noundef %30, ptr noundef %31)
  %33 = trunc i64 %32 to i32
  store i32 %33, ptr %4, align 4, !tbaa !24
  %34 = load i32, ptr %5, align 4, !tbaa !24
  %35 = load ptr, ptr %6, align 8, !tbaa !40
  %36 = getelementptr inbounds nuw %struct.Vec_Wrd_t_, ptr %35, i32 0, i32 1
  store i32 %34, ptr %36, align 4, !tbaa !41
  %37 = load i32, ptr %5, align 4, !tbaa !24
  %38 = load ptr, ptr %7, align 8, !tbaa !28
  %39 = getelementptr inbounds nuw %struct.Vec_Int_t_, ptr %38, i32 0, i32 1
  store i32 %37, ptr %39, align 4, !tbaa !29
  %40 = load ptr, ptr %6, align 8, !tbaa !40
  %41 = call ptr @Hsh_WrdManHashArrayStart(ptr noundef %40, i32 noundef 1)
  store ptr %41, ptr %8, align 8, !tbaa !34
  %42 = load ptr, ptr %8, align 8, !tbaa !34
  call void @Hsh_IntManStop(ptr noundef %42)
  %43 = load ptr, ptr %6, align 8, !tbaa !40
  call void @Vec_WrdFree(ptr noundef %43)
  %44 = load ptr, ptr %7, align 8, !tbaa !28
  call void @Vec_IntFree(ptr noundef %44)
  %45 = call i64 @Abc_Clock()
  %46 = load i64, ptr %1, align 8, !tbaa !55
  %47 = sub nsw i64 %45, %46
  call void @Abc_PrintTime(i32 noundef 1, ptr noundef @.str.25, i64 noundef %47)
  call void @llvm.lifetime.end.p0(i64 8, ptr %8) #12
  call void @llvm.lifetime.end.p0(i64 8, ptr %7) #12
  call void @llvm.lifetime.end.p0(i64 8, ptr %6) #12
  call void @llvm.lifetime.end.p0(i64 4, ptr %5) #12
  call void @llvm.lifetime.end.p0(i64 4, ptr %4) #12
  call void @llvm.lifetime.end.p0(i64 8, ptr %3) #12
  call void @llvm.lifetime.end.p0(i64 8, ptr %2) #12
  call void @llvm.lifetime.end.p0(i64 8, ptr %1) #12
  ret i32 1
}