; Function Attrs: nounwind uwtable
define noundef i32 @Ifd_ManDsdTest55() local_unnamed_addr #5 {
  %1 = alloca %struct.timespec, align 8
  %2 = alloca %struct.timespec, align 8
  call void @llvm.lifetime.start.p0(i64 16, ptr nonnull %2) #28
  %3 = call i32 @clock_gettime(i32 noundef 1, ptr noundef nonnull %2) #28
  %4 = icmp slt i32 %3, 0
  br i1 %4, label %Abc_Clock.exit, label %5

5:                                                ; preds = %0
  %6 = load i64, ptr %2, align 8, !tbaa !105
  %.neg27 = mul i64 %6, -1000000
  %7 = getelementptr inbounds nuw i8, ptr %2, i64 8
  %8 = load i64, ptr %7, align 8, !tbaa !107
  %.neg = sdiv i64 %8, -1000
  %.neg28 = add i64 %.neg, %.neg27
  br label %Abc_Clock.exit

Abc_Clock.exit:                                   ; preds = %0, %5
  %.0.i.neg = phi i64 [ %.neg28, %5 ], [ 1, %0 ]
  call void @llvm.lifetime.end.p0(i64 16, ptr nonnull %2) #28
  %9 = call i32 @Extra_FileSize(ptr noundef nonnull @.str.23) #28
  %10 = sdiv i32 %9, 12
  %11 = call i32 @llvm.umax.i32(i32 %10, i32 15)
  %spec.store.select.i = add i32 %11, 1
  %.not.i = icmp eq i32 %spec.store.select.i, 0
  br i1 %.not.i, label %Vec_WrdAlloc.exit, label %12

12:                                               ; preds = %Abc_Clock.exit
  %13 = sext i32 %spec.store.select.i to i64
  %14 = shl nsw i64 %13, 3
  %15 = call noalias ptr @malloc(i64 noundef %14) #27
  br label %Vec_WrdAlloc.exit

Vec_WrdAlloc.exit:                                ; preds = %Abc_Clock.exit, %12
  %16 = phi ptr [ %15, %12 ], [ null, %Abc_Clock.exit ]
  %17 = add nsw i32 %10, -1
  %or.cond.i19 = icmp ult i32 %17, 15
  %spec.store.select.i20 = select i1 %or.cond.i19, i32 16, i32 %10
  %.not.i21 = icmp eq i32 %spec.store.select.i20, 0
  br i1 %.not.i21, label %Vec_IntAlloc.exit, label %18

18:                                               ; preds = %Vec_WrdAlloc.exit
  %19 = sext i32 %spec.store.select.i20 to i64
  %20 = shl nsw i64 %19, 2
  %21 = call noalias ptr @malloc(i64 noundef %20) #27
  br label %Vec_IntAlloc.exit

Vec_IntAlloc.exit:                                ; preds = %Vec_WrdAlloc.exit, %18
  %22 = phi ptr [ %21, %18 ], [ null, %Vec_WrdAlloc.exit ]
  %23 = call noalias ptr @fopen(ptr noundef nonnull @.str.23, ptr noundef nonnull @.str.24)
  %24 = sext i32 %10 to i64
  %25 = call i64 @fread(ptr noundef %16, i64 noundef 8, i64 noundef %24, ptr noundef %23)
  %26 = call i64 @fread(ptr noundef %22, i64 noundef 4, i64 noundef %24, ptr noundef %23)
  %27 = shl nsw i32 %10, 1
  %28 = call noalias dereferenceable_or_null(16) ptr @malloc(i64 noundef 16) #27
  %29 = add nsw i32 %27, -1
  %or.cond.i.i = icmp ult i32 %29, 15
  %spec.store.select.i.i = select i1 %or.cond.i.i, i32 16, i32 %27
  %30 = getelementptr inbounds nuw i8, ptr %28, i64 4
  store i32 %spec.store.select.i.i, ptr %28, align 8, !tbaa !21
  %.not.i.i = icmp eq i32 %spec.store.select.i.i, 0
  br i1 %.not.i.i, label %Vec_IntAlloc.exit.i, label %31

31:                                               ; preds = %Vec_IntAlloc.exit
  %32 = sext i32 %spec.store.select.i.i to i64
  %33 = shl nsw i64 %32, 2
  %34 = call noalias ptr @malloc(i64 noundef %33) #27
  br label %Vec_IntAlloc.exit.i

Vec_IntAlloc.exit.i:                              ; preds = %31, %Vec_IntAlloc.exit
  %35 = phi ptr [ %34, %31 ], [ null, %Vec_IntAlloc.exit ]
  %36 = getelementptr inbounds nuw i8, ptr %28, i64 8
  store ptr %35, ptr %36, align 8, !tbaa !22
  %37 = shl nsw i64 %24, 3
  call void @llvm.memcpy.p0.p0.i64(ptr align 4 %35, ptr align 8 %16, i64 %37, i1 false)
  store i32 %27, ptr %30, align 4, !tbaa !18
  %38 = call fastcc ptr @Hsh_IntManStart(ptr noundef nonnull %28, i32 noundef 2, i32 noundef %10)
  %39 = icmp sgt i32 %9, 11
  br i1 %39, label %.lr.ph.i, label %Hsh_WrdManHashArrayStart.exit

.lr.ph.i:                                         ; preds = %Vec_IntAlloc.exit.i, %.lr.ph.i
  %.021.i = phi i32 [ %41, %.lr.ph.i ], [ 0, %Vec_IntAlloc.exit.i ]
  %40 = call fastcc i32 @Hsh_IntManAdd(ptr noundef %38, i32 noundef %.021.i)
  %41 = add nuw nsw i32 %.021.i, 1
  %exitcond.not.i = icmp eq i32 %41, %10
  br i1 %exitcond.not.i, label %Hsh_WrdManHashArrayStart.exit, label %.lr.ph.i, !llvm.loop !108

Hsh_WrdManHashArrayStart.exit:                    ; preds = %.lr.ph.i, %Vec_IntAlloc.exit.i
  %42 = getelementptr inbounds nuw i8, ptr %38, i64 16
  %43 = load ptr, ptr %42, align 8, !tbaa !28
  %44 = getelementptr inbounds nuw i8, ptr %43, i64 8
  %45 = load ptr, ptr %44, align 8, !tbaa !22
  %.not.i.i22 = icmp eq ptr %45, null
  br i1 %.not.i.i22, label %Vec_IntFree.exit.i, label %46

46:                                               ; preds = %Hsh_WrdManHashArrayStart.exit
  call void @free(ptr noundef nonnull %45) #28
  br label %Vec_IntFree.exit.i

Vec_IntFree.exit.i:                               ; preds = %46, %Hsh_WrdManHashArrayStart.exit
  call void @free(ptr noundef nonnull %43) #28
  %47 = getelementptr inbounds nuw i8, ptr %38, i64 24
  %48 = load ptr, ptr %47, align 8, !tbaa !34
  %49 = getelementptr inbounds nuw i8, ptr %48, i64 8
  %50 = load ptr, ptr %49, align 8, !tbaa !33
  %.not.i4.i = icmp eq ptr %50, null
  br i1 %.not.i4.i, label %Hsh_IntManStop.exit, label %51

51:                                               ; preds = %Vec_IntFree.exit.i
  call void @free(ptr noundef nonnull %50) #28
  br label %Hsh_IntManStop.exit

Hsh_IntManStop.exit:                              ; preds = %Vec_IntFree.exit.i, %51
  call void @free(ptr noundef nonnull %48) #28
  call void @free(ptr noundef nonnull %38) #28
  %.not.i23 = icmp eq ptr %16, null
  br i1 %.not.i23, label %Vec_WrdFree.exit, label %52

52:                                               ; preds = %Hsh_IntManStop.exit
  call void @free(ptr noundef nonnull %16) #28
  br label %Vec_WrdFree.exit

Vec_WrdFree.exit:                                 ; preds = %Hsh_IntManStop.exit, %52
  %.not.i24 = icmp eq ptr %22, null
  br i1 %.not.i24, label %Vec_IntFree.exit, label %53

53:                                               ; preds = %Vec_WrdFree.exit
  call void @free(ptr noundef nonnull %22) #28
  br label %Vec_IntFree.exit

Vec_IntFree.exit:                                 ; preds = %Vec_WrdFree.exit, %53
  call void @llvm.lifetime.start.p0(i64 16, ptr nonnull %1) #28
  %54 = call i32 @clock_gettime(i32 noundef 1, ptr noundef nonnull %1) #28
  %55 = icmp slt i32 %54, 0
  br i1 %55, label %Abc_Clock.exit26, label %56

56:                                               ; preds = %Vec_IntFree.exit
  %57 = load i64, ptr %1, align 8, !tbaa !105
  %58 = mul nsw i64 %57, 1000000
  %59 = getelementptr inbounds nuw i8, ptr %1, i64 8
  %60 = load i64, ptr %59, align 8, !tbaa !107
  %61 = sdiv i64 %60, 1000
  %62 = add nsw i64 %61, %58
  br label %Abc_Clock.exit26

Abc_Clock.exit26:                                 ; preds = %Vec_IntFree.exit, %56
  %.0.i25 = phi i64 [ %62, %56 ], [ -1, %Vec_IntFree.exit ]
  call void @llvm.lifetime.end.p0(i64 16, ptr nonnull %1) #28
  %63 = add i64 %.0.i25, %.0.i.neg
  call void (i32, ptr, ...) @Abc_Print(i32 poison, ptr noundef nonnull @.str.26, ptr noundef nonnull @.str.25)
  %64 = sitofp i64 %63 to double
  %65 = fdiv double %64, 1.000000e+06
  call void (i32, ptr, ...) @Abc_Print(i32 poison, ptr noundef nonnull @.str.27, double noundef %65)
  ret i32 1
}